target datalayout = "e-m:e-p270:32:32-p271:32:32-p272:64:64-i64:64-i128:128-f80:128-n8:16:32:64-S128"
target triple = "x86_64-pc-linux-gnu"

@H5PL_plugin_control_mask_g = internal global i32 65535, align 4
@H5PL_allow_plugins_g = internal global i8 1, align 1
@.str = private unnamed_addr constant [20 x i8] c"HDF5_PLUGIN_PRELOAD\00", align 1
@.str.1 = private unnamed_addr constant [3 x i8] c"::\00", align 1
@.str.2 = private unnamed_addr constant [101 x i8] c"generated/home/dtcxzyw/WorkSpace/Projects/compilers/llvm-opt-benchmark/bench/hdf5/hdf5/src/H5PLint.c\00", align 1
@__func__.H5PL_init = private unnamed_addr constant [10 x i8] c"H5PL_init\00", align 1
@H5E_PLUGIN_g = external global i64, align 8
@H5E_CANTINIT_g = external global i64, align 8
@.str.3 = private unnamed_addr constant [26 x i8] c"can't create plugin cache\00", align 1
@.str.4 = private unnamed_addr constant [38 x i8] c"can't create plugin search path table\00", align 1

; Function Attrs: nounwind uwtable
define i32 @H5PL_init() #0 {
  %1 = alloca ptr, align 8
  %2 = alloca i32, align 4
  %3 = alloca i8, align 1
  store ptr null, ptr %1, align 8
  store i32 0, ptr %2, align 4
  store i8 0, ptr %3, align 1
  %4 = call ptr @getenv(ptr noundef @.str) #4
  store ptr %4, ptr %1, align 8
  %5 = icmp ne ptr null, %4
  br i1 %5, label %6, label %12

6:                                                ; preds = %0
  %7 = load ptr, ptr %1, align 8
  %8 = call i32 @strcmp(ptr noundef %7, ptr noundef @.str.1) #5
  %9 = icmp ne i32 %8, 0
  br i1 %9, label %11, label %10

10:                                               ; preds = %6
  store i32 0, ptr @H5PL_plugin_control_mask_g, align 4
  store i8 0, ptr @H5PL_allow_plugins_g, align 1
  br label %11

11:                                               ; preds = %10, %6
  br label %12

12:                                               ; preds = %11, %0
  %13 = call i32 @H5PL__create_plugin_cache()
  %14 = icmp slt i32 %13, 0
  br i1 %14, label %15, label %30

15:                                               ; preds = %12
  br label %16

16:                                               ; preds = %15
  br label %17

17:                                               ; preds = %16
  br label %18

18:                                               ; preds = %17
  %19 = load i64, ptr @H5E_PLUGIN_g, align 8
  %20 = load i64, ptr @H5E_CANTINIT_g, align 8
  %21 = call i32 (ptr, ptr, i32, i64, i64, ptr, ...) @H5E_printf_stack(ptr noundef @.str.2, ptr noundef @__func__.H5PL_init, i32 noundef 150, i64 noundef %19, i64 noundef %20, ptr noundef @.str.3)
  br label %22

22:                                               ; preds = %18
  store i8 1, ptr %3, align 1
  %23 = load i8, ptr %3, align 1
  %24 = trunc i8 %23 to i1
  %25 = zext i1 %24 to i8
  store i8 %25, ptr %3, align 1
  br label %26

26:                                               ; preds = %22
  br label %27

27:                                               ; preds = %26
  store i32 -1, ptr %2, align 4
  br label %49

28:                                               ; No predecessors!
  br label %29

29:                                               ; preds = %28
  br label %30

30:                                               ; preds = %29, %12
  %31 = call i32 @H5PL__create_path_table()
  %32 = icmp slt i32 %31, 0
  br i1 %32, label %33, label %48

33:                                               ; preds = %30
  br label %34

34:                                               ; preds = %33
  br label %35

35:                                               ; preds = %34
  br label %36

36:                                               ; preds = %35
  %37 = load i64, ptr @H5E_PLUGIN_g, align 8
  %38 = load i64, ptr @H5E_CANTINIT_g, align 8
  %39 = call i32 (ptr, ptr, i32, i64, i64, ptr, ...) @H5E_printf_stack(ptr noundef @.str.2, ptr noundef @__func__.H5PL_init, i32 noundef 154, i64 noundef %37, i64 noundef %38, ptr noundef @.str.4)
  br label %40

40:                                               ; preds = %36
  store i8 1, ptr %3, align 1
  %41 = load i8, ptr %3, align 1
  %42 = trunc i8 %41 to i1
  %43 = zext i1 %42 to i8
  store i8 %43, ptr %3, align 1
  br label %44

44:                                               ; preds = %40
  br label %45

45:                                               ; preds = %44
  store i32 -1, ptr %2, align 4
  br label %49

46:                                               ; No predecessors!
  br label %47

47:                                               ; preds = %46
  br label %48

48:                                               ; preds = %47, %30
  br label %49

49:                                               ; preds = %48, %45, %27
  %50 = load i32, ptr %2, align 4
  ret i32 %50
}