; Function Attrs: nounwind uwtable
define range(i32 -1, 1) i32 @H5PL_init() local_unnamed_addr #2 {
  %1 = tail call ptr @getenv(ptr noundef nonnull @.str) #6
  %.not = icmp eq ptr %1, null
  br i1 %.not, label %.tail.thread, label %sub_0

sub_0:                                            ; preds = %0
  %2 = load i8, ptr %1, align 1
  %.not5 = icmp eq i8 %2, 58
  br i1 %.not5, label %sub_1, label %.tail.thread

sub_1:                                            ; preds = %sub_0
  %3 = getelementptr inbounds nuw i8, ptr %1, i64 1
  %4 = load i8, ptr %3, align 1
  %.not6 = icmp eq i8 %4, 58
  br i1 %.not6, label %.tail, label %.tail.thread

.tail:                                            ; preds = %sub_1
  %5 = getelementptr inbounds nuw i8, ptr %1, i64 2
  %6 = load i8, ptr %5, align 1
  %7 = icmp eq i8 %6, 0
  br i1 %7, label %8, label %.tail.thread

8:                                                ; preds = %.tail
  store i32 0, ptr @H5PL_plugin_control_mask_g, align 4
  store i1 true, ptr @H5PL_allow_plugins_g, align 1
  br label %.tail.thread

.tail.thread:                                     ; preds = %sub_1, %sub_0, %.tail, %8, %0
  %9 = tail call i32 @H5PL__create_plugin_cache() #6
  %10 = icmp slt i32 %9, 0
  br i1 %10, label %11, label %15

11:                                               ; preds = %.tail.thread
  %12 = load i64, ptr @H5E_PLUGIN_g, align 8
  %13 = load i64, ptr @H5E_CANTINIT_g, align 8
  %14 = tail call i32 (ptr, ptr, i32, i64, i64, ptr, ...) @H5E_printf_stack(ptr noundef nonnull @.str.2, ptr noundef nonnull @__func__.H5PL_init, i32 noundef 150, i64 noundef %12, i64 noundef %13, ptr noundef nonnull @.str.3) #6
  br label %22

15:                                               ; preds = %.tail.thread
  %16 = tail call i32 @H5PL__create_path_table() #6
  %17 = icmp slt i32 %16, 0
  br i1 %17, label %18, label %22

18:                                               ; preds = %15
  %19 = load i64, ptr @H5E_PLUGIN_g, align 8
  %20 = load i64, ptr @H5E_CANTINIT_g, align 8
  %21 = tail call i32 (ptr, ptr, i32, i64, i64, ptr, ...) @H5E_printf_stack(ptr noundef nonnull @.str.2, ptr noundef nonnull @__func__.H5PL_init, i32 noundef 154, i64 noundef %19, i64 noundef %20, ptr noundef nonnull @.str.4) #6
  br label %22

22:                                               ; preds = %15, %18, %11
  %.0 = phi i32 [ -1, %11 ], [ -1, %18 ], [ 0, %15 ]
  ret i32 %.0
}